; Function Attrs: nounwind uwtable
define internal fastcc i32 @_add_users_cond(ptr noundef readonly captures(none) %0, ptr readonly captures(none) %.8.val, ptr noundef writeonly captures(none) initializes((0, 8)) %1) unnamed_addr #0 {
  %3 = alloca ptr, align 8
  call void @llvm.lifetime.start.p0(i64 8, ptr nonnull %3) #10
  %4 = tail call i32 @get_log_level() #10
  %5 = icmp sgt i32 %4, 5
  br i1 %5, label %6, label %10

6:                                                ; preds = %2
  %7 = load ptr, ptr %0, align 8
  %8 = getelementptr inbounds nuw i8, ptr %7, i64 60
  %9 = load i32, ptr %8, align 4
  tail call void (i32, ptr, ...) @log_var(i32 noundef 6, ptr noundef nonnull @.str.39, i32 noundef %9) #10
  br label %10

10:                                               ; preds = %6, %2
  %11 = getelementptr inbounds nuw i8, ptr %0, i64 56
  %12 = load ptr, ptr %11, align 8
  %13 = load ptr, ptr %0, align 8
  %14 = getelementptr inbounds nuw i8, ptr %13, i64 8
  %15 = load i32, ptr %14, align 8
  %16 = load ptr, ptr %.8.val, align 8
  %17 = getelementptr inbounds nuw i8, ptr %.8.val, i64 8
  %18 = load ptr, ptr %17, align 8
  %19 = tail call ptr @acct_storage_g_add_users_cond(ptr noundef %12, i32 noundef %15, ptr noundef %16, ptr noundef %18) #10
  store ptr %19, ptr %3, align 8
  %.not.not = icmp eq ptr %19, null
  %20 = tail call ptr @__errno_location() #12
  %21 = load i32, ptr %20, align 4
  %22 = load ptr, ptr %0, align 8
  br i1 %.not.not, label %23, label %40

23:                                               ; preds = %10
  %24 = getelementptr inbounds nuw i8, ptr %22, i64 60
  %25 = load i32, ptr %24, align 4
  switch i32 %21, label %34 [
    i32 1900, label %26
    i32 2002, label %36
    i32 -1, label %30
    i32 7000, label %31
    i32 2067, label %33
  ]

26:                                               ; preds = %23
  %27 = tail call i32 @get_log_level() #10
  %28 = icmp sgt i32 %27, 5
  br i1 %28, label %29, label %.thread

29:                                               ; preds = %26
  tail call void (i32, ptr, ...) @log_var(i32 noundef 6, ptr noundef nonnull @.str.16, i32 noundef %25, ptr noundef nonnull @.str.14) #10
  br label %.thread

30:                                               ; preds = %23
  br label %36

31:                                               ; preds = %23
  %32 = tail call ptr @slurm_strerror(i32 noundef 7000) #10
  br label %36

33:                                               ; preds = %23
  br label %36

34:                                               ; preds = %23
  %35 = tail call ptr @slurm_strerror(i32 noundef %21) #10
  %.not24.i = icmp eq ptr %35, null
  %spec.store.select.i = select i1 %.not24.i, ptr @.str.20, ptr %35
  br label %36

36:                                               ; preds = %23, %34, %33, %31, %30
  %.1.i = phi ptr [ @.str.18, %30 ], [ %32, %31 ], [ @.str.19, %33 ], [ %spec.store.select.i, %34 ], [ @.str.17, %23 ]
  %37 = tail call i32 (ptr, ...) @error(ptr noundef nonnull @.str.16, i32 noundef %25, ptr noundef %.1.i) #10
  br label %.thread

.thread:                                          ; preds = %36, %29, %26
  %.022.i = phi ptr [ %.1.i, %36 ], [ @.str.14, %29 ], [ @.str.14, %26 ]
  %38 = load ptr, ptr %0, align 8
  %39 = tail call ptr @slurm_persist_make_rc_msg(ptr noundef %38, i32 noundef %21, ptr noundef %.022.i, i16 noundef zeroext 1502) #10
  store ptr %39, ptr %1, align 8
  br label %42

40:                                               ; preds = %10
  %41 = tail call ptr @slurm_persist_make_rc_msg(ptr noundef %22, i32 noundef %21, ptr noundef nonnull %19, i16 noundef zeroext 1502) #10
  store ptr %41, ptr %1, align 8
  call void @slurm_xfree(ptr noundef nonnull %3) #10
  br label %42

42:                                               ; preds = %.thread, %40
  call void @llvm.lifetime.end.p0(i64 8, ptr nonnull %3) #10
  ret i32 %21
}